(lp0
(i__main__
Salto
p1
(dp2
S'rtt'
p3
F0.02852315902709961
sS'confianza'
p4
I1
sS'ips_count'
p5
I10
sS'geoip'
p6
S'AR'
p7
sS'ttl'
p8
I1
sS'packet_ip'
p9
S'179.36.64.1'
p10
sba(i__main__
Salto
p11
(dp12
g3
F0.03400423526763916
sg4
I1
sg5
I10
sg6
S'AR'
p13
sg8
I2
sg9
S'200.63.133.92'
p14
sba(i__main__
Salto
p15
(dp16
g3
F0.0316392183303833
sg4
I1
sg5
I10
sg6
S'AR'
p17
sg8
I3
sg9
S'200.51.208.4'
p18
sba(i__main__
Salto
p19
(dp20
g3
F0.033085036277771
sg4
I1
sg5
I10
sg6
S'AR'
p21
sg8
I4
sg9
S'200.51.240.146'
p22
sba(i__main__
Salto
p23
(dp24
g3
F0.03197298049926758
sg4
I1
sg5
I10
sg6
S'AR'
p25
sg8
I5
sg9
S'200.51.240.181'
p26
sba(i__main__
Salto
p27
(dp28
g3
F0.030176806449890136
sg4
I1
sg5
I10
sg6
S'ES'
p29
sg8
I6
sg9
S'213.140.39.118'
p30
sba(i__main__
Salto
p31
(dp32
g3
F0.16638784408569335
sg4
I1
sg5
I10
sg6
S'ES'
p33
sg8
I7
sg9
S'5.53.5.154'
p34
sba(i__main__
Salto
p35
(dp36
g3
F0.24099597930908204
sg4
I1
sg5
I10
sg6
S'ES'
p37
sg8
I8
sg9
S'213.140.36.70'
p38
sba(i__main__
Salto
p39
(dp40
g3
F0.23270232677459718
sg4
I1
sg5
I10
sg6
S'ES'
p41
sg8
I9
sg9
S'213.140.52.229'
p42
sba(i__main__
Salto
p43
(dp44
g3
F0.245587158203125
sg4
I1
sg5
I10
sg6
S'US'
p45
sg8
I10
sg9
S'208.185.52.74'
p46
sba(i__main__
Salto
p47
(dp48
g3
F0.39280869960784914
sg4
I1
sg5
I10
sg6
S'AU'
p49
sg8
I11
sg9
S'202.158.194.176'
p50
sba(i__main__
Salto
p51
(dp52
g3
F0.38064160346984866
sg4
I1
sg5
I10
sg6
S'AU'
p53
sg8
I12
sg9
S'113.197.15.146'
p54
sba(i__main__
Salto
p55
(dp56
g3
F0.38029768466949465
sg4
I1
sg5
I10
sg6
S'AU'
p57
sg8
I13
sg9
S'138.44.5.47'
p58
sba(i__main__
Salto
p59
(dp60
g3
F0.38500864505767823
sg4
I1
sg5
I10
sg6
S'AU'
p61
sg8
I16
sg9
S'129.78.5.8'
p62
sba.