(lp0
(i__main__
Salto
p1
(dp2
S'rtt'
p3
F0.04926645755767822
sS'confianza'
p4
I1
sS'ips_count'
p5
I10
sS'geoip'
p6
S'AR'
p7
sS'ttl'
p8
I1
sS'packet_ip'
p9
S'179.36.64.1'
p10
sba(i__main__
Salto
p11
(dp12
g3
F0.09661860466003418
sg4
I0
sg5
I5
sg6
S'AR'
p13
sg8
I2
sg9
S'200.63.133.94'
p14
sba(i__main__
Salto
p15
(dp16
g3
F0.03995378812154134
sg4
I0
sg5
I6
sg6
S'AR'
p17
sg8
I3
sg9
S'200.51.240.174'
p18
sba(i__main__
Salto
p19
(dp20
g3
F0.05163643360137939
sg4
I1
sg5
I10
sg6
S'AR'
p21
sg8
I4
sg9
S'200.51.208.94'
p22
sba(i__main__
Salto
p23
(dp24
g3
F0.03661041259765625
sg4
I1
sg5
I10
sg6
S'AR'
p25
sg8
I5
sg9
S'200.51.240.181'
p26
sba(i__main__
Salto
p27
(dp28
g3
F0.02946629524230957
sg4
I1
sg5
I10
sg6
S'ES'
p29
sg8
I6
sg9
S'213.140.39.118'
p30
sba(i__main__
Salto
p31
(dp32
g3
F0.19497760136922201
sg4
I0
sg5
I6
sg6
S'ES'
p33
sg8
I7
sg9
S'5.53.5.62'
p34
sba(i__main__
Salto
p35
(dp36
g3
F0.2003183364868164
sg4
I0
sg5
I3
sg6
S'ES'
p37
sg8
I8
sg9
S'94.142.125.53'
p38
sba(i__main__
Salto
p39
(dp40
g3
F0.20666007995605468
sg4
I1
sg5
I10
sg6
S'ES'
p41
sg8
I9
sg9
S'213.140.39.201'
p42
sba(i__main__
Salto
p43
(dp44
g3
F0.2340597152709961
sg4
I1
sg5
I10
sg6
S'US'
p45
sg8
I10
sg9
S'66.198.154.117'
p46
sba(i__main__
Salto
p47
(dp48
g3
F0.24035611152648925
sg4
I1
sg5
I10
sg6
S'US'
p49
sg8
I11
sg9
S'216.6.87.1'
p50
sba(i__main__
Salto
p51
(dp52
g3
F0.2363632619380951
sg4
I0
sg5
I8
sg6
S'US'
p53
sg8
I12
sg9
S'216.6.87.242'
p54
sba(i__main__
Salto
p55
(dp56
g3
F0.22390434741973878
sg4
I1
sg5
I10
sg6
S'US'
p57
sg8
I13
sg9
S'216.6.57.1'
p58
sba(i__main__
Salto
p59
(dp60
g3
F0.42627606391906736
sg4
I1
sg5
I10
sg6
S'US'
p61
sg8
I14
sg9
S'66.198.70.10'
p62
sba(i__main__
Salto
p63
(dp64
g3
F0.4522380352020264
sg4
I1
sg5
I10
sg6
S'IN'
p65
sg8
I16
sg9
S'14.140.210.22'
p66
sba.