(lp0
(i__main__
Salto
p1
(dp2
S'rtt'
p3
F0.028549003601074218
sS'confianza'
p4
I1
sS'ips_count'
p5
I10
sS'geoip'
p6
S'AR'
p7
sS'ttl'
p8
I1
sS'packet_ip'
p9
S'179.36.64.1'
p10
sba(i__main__
Salto
p11
(dp12
g3
F0.029936838150024413
sg4
I1
sg5
I10
sg6
S'AR'
p13
sg8
I2
sg9
S'200.63.133.94'
p14
sba(i__main__
Salto
p15
(dp16
g3
F0.033082199096679685
sg4
I1
sg5
I10
sg6
S'AR'
p17
sg8
I3
sg9
S'200.51.240.174'
p18
sba(i__main__
Salto
p19
(dp20
g3
F0.03068101406097412
sg4
I1
sg5
I10
sg6
S'AR'
p21
sg8
I4
sg9
S'200.51.208.94'
p22
sba(i__main__
Salto
p23
(dp24
g3
F0.03205270767211914
sg4
I1
sg5
I10
sg6
S'AR'
p25
sg8
I5
sg9
S'200.51.240.181'
p26
sba(i__main__
Salto
p27
(dp28
g3
F0.029754114151000977
sg4
I1
sg5
I10
sg6
S'ES'
p29
sg8
I6
sg9
S'213.140.39.118'
p30
sba(i__main__
Salto
p31
(dp32
g3
F0.1688265323638916
sg4
I1
sg5
I10
sg6
S'ES'
p33
sg8
I7
sg9
S'5.53.5.62'
p34
sba(i__main__
Salto
p35
(dp36
g3
F0.21010050773620606
sg4
I1
sg5
I10
sg6
S'ES'
p37
sg8
I8
sg9
S'5.53.5.38'
p38
sba(i__main__
Salto
p39
(dp40
g3
F0.2001415967941284
sg4
I1
sg5
I10
sg6
S'ES'
p41
sg8
I9
sg9
S'213.140.52.105'
p42
sba(i__main__
Salto
p43
(dp44
g3
F0.2229994535446167
sg4
I1
sg5
I10
sg6
Nsg8
I10
sg9
S'213.155.130.206'
p45
sba(i__main__
Salto
p46
(dp47
g3
F0.29883289337158203
sg4
I0
sg5
I1
sg6
Nsg8
I11
sg9
S'213.155.133.148'
p48
sba(i__main__
Salto
p49
(dp50
g3
F0.2981849193572998
sg4
I1
sg5
I10
sg6
Nsg8
I12
sg9
S'80.91.248.216'
p51
sba(i__main__
Salto
p52
(dp53
g3
F0.2923738956451416
sg4
I1
sg5
I10
sg6
Nsg8
I13
sg9
S'62.115.148.161'
p54
sba(i__main__
Salto
p55
(dp56
g3
F0.29636802673339846
sg4
I1
sg5
I10
sg6
S'GB'
p57
sg8
I14
sg9
S'146.97.33.14'
p58
sba(i__main__
Salto
p59
(dp60
g3
F0.2991008996963501
sg4
I1
sg5
I10
sg6
S'GB'
p61
sg8
I15
sg9
S'146.97.33.42'
p62
sba(i__main__
Salto
p63
(dp64
g3
F0.2974886894226074
sg4
I1
sg5
I10
sg6
S'GB'
p65
sg8
I16
sg9
S'146.97.36.222'
p66
sba(i__main__
Salto
p67
(dp68
g3
F0.30770034790039064
sg4
I1
sg5
I10
sg6
S'GB'
p69
sg8
I17
sg9
S'146.97.150.78'
p70
sba.