(lp0
(i__main__
Salto
p1
(dp2
S'geoip'
p3
NsS'ttl'
p4
I1
sS'cimbala'
p5
F0.0
sS'packet_ip'
p6
S'10.0.2.2'
p7
sS'rtt'
p8
F0.006666666666666668
sba(i__main__
Salto
p9
(dp10
g3
Nsg4
I2
sg5
F0.0
sg6
S'10.2.7.254'
p11
sg8
F0.003333333333333332
sba(i__main__
Salto
p12
(dp13
g3
S'AR'
p14
sg4
I3
sg5
F0.0
sg6
S'157.92.18.99'
p15
sg8
F0.006666666666666672
sba(i__main__
Salto
p16
(dp17
g3
Nsg4
I4
sg5
F0.0
sg6
S''
p18
sg8
I0
sba(i__main__
Salto
p19
(dp20
g3
S'AR'
p21
sg4
I5
sg5
F0.0
sg6
S'157.92.47.2'
p22
sg8
F0.006666666666666672
sba(i__main__
Salto
p23
(dp24
g3
Nsg4
I6
sg5
F0.0
sg6
g18
sg8
I0
sba(i__main__
Salto
p25
(dp26
g3
S'AR'
p27
sg4
I7
sg5
F0.0
sg6
S'168.96.0.18'
p28
sg8
F0.006666666666666664
sba(i__main__
Salto
p29
(dp30
g3
S'UY'
p31
sg4
I8
sg5
F0.0
sg6
S'200.0.204.154'
p32
sg8
F0.003333333333333336
sba(i__main__
Salto
p33
(dp34
g3
S'UY'
p35
sg4
I9
sg5
F0.0
sg6
S'200.0.204.88'
p36
sg8
F0.003333333333333327
sba(i__main__
Salto
p37
(dp38
g3
S'UY'
p39
sg4
I10
sg5
F0.0
sg6
S'200.0.204.2'
p40
sg8
F0.003333333333333336
sba(i__main__
Salto
p41
(dp42
g3
Nsg4
I11
sg5
F0.0
sg6
g18
sg8
I0
sba(i__main__
Salto
p43
(dp44
g3
Nsg4
I12
sg5
F0.0
sg6
g18
sg8
I0
sba(i__main__
Salto
p45
(dp46
g3
S'GB'
p47
sg4
I13
sg5
F0.0
sg6
S'146.97.33.22'
p48
sg8
F0.0050000000000000044
sba(i__main__
Salto
p49
(dp50
g3
S'GB'
p51
sg4
I14
sg5
F0.0
sg6
S'146.97.33.42'
p52
sg8
F0.0
sba(i__main__
Salto
p53
(dp54
g3
Nsg4
I15
sg5
F0.0
sg6
g18
sg8
F0.0
sba(i__main__
Salto
p55
(dp56
g3
Nsg4
I16
sg5
F0.0
sg6
g18
sg8
F0.0
sba(i__main__
Salto
p57
(dp58
g3
Nsg4
I17
sg5
F0.0
sg6
g18
sg8
I0
sba(i__main__
Salto
p59
(dp60
g3
Nsg4
I18
sg5
F0.0
sg6
g18
sg8
I0
sba(i__main__
Salto
p61
(dp62
g3
Nsg4
I19
sg5
F0.0
sg6
g18
sg8
I0
sba.