(lp0
(i__main__
Salto
p1
(dp2
S'rtt'
p3
F0.028713679313659667
sS'confianza'
p4
I1
sS'ips_count'
p5
I10
sS'geoip'
p6
S'AR'
p7
sS'ttl'
p8
I1
sS'packet_ip'
p9
S'179.36.64.1'
p10
sba(i__main__
Salto
p11
(dp12
g3
F0.029919544855753582
sg4
I0
sg5
I9
sg6
S'AR'
p13
sg8
I2
sg9
S'200.63.133.92'
p14
sba(i__main__
Salto
p15
(dp16
g3
F0.03403050899505615
sg4
I1
sg5
I10
sg6
S'AR'
p17
sg8
I3
sg9
S'200.51.240.154'
p18
sba(i__main__
Salto
p19
(dp20
g3
F0.03137633800506592
sg4
I1
sg5
I10
sg6
S'AR'
p21
sg8
I4
sg9
S'200.51.208.94'
p22
sba(i__main__
Salto
p23
(dp24
g3
F0.03268322944641113
sg4
I1
sg5
I10
sg6
S'AR'
p25
sg8
I5
sg9
S'200.51.240.181'
p26
sba(i__main__
Salto
p27
(dp28
g3
F0.02985844612121582
sg4
I1
sg5
I10
sg6
S'ES'
p29
sg8
I6
sg9
S'213.140.39.118'
p30
sba(i__main__
Salto
p31
(dp32
g3
F0.17605910301208497
sg4
I1
sg5
I10
sg6
S'ES'
p33
sg8
I7
sg9
S'5.53.5.62'
p34
sba(i__main__
Salto
p35
(dp36
g3
F0.17774629592895508
sg4
I1
sg5
I10
sg6
S'ES'
p37
sg8
I8
sg9
S'94.142.120.30'
p38
sba(i__main__
Salto
p39
(dp40
g3
F0.16959724426269532
sg4
I1
sg5
I10
sg6
S'ES'
p41
sg8
I9
sg9
S'213.140.37.13'
p42
sba(i__main__
Salto
p43
(dp44
g3
F0.1670689582824707
sg4
I0
sg5
I1
sg6
S'ES'
p45
sg8
I10
sg9
S'213.140.33.164'
p46
sba(i__main__
Salto
p47
(dp48
g3
F0.19619348049163818
sg4
I1
sg5
I10
sg6
S'US'
p49
sg8
I11
sg9
S'154.54.11.157'
p50
sba(i__main__
Salto
p51
(dp52
g3
F0.1967158317565918
sg4
I1
sg5
I10
sg6
S'US'
p53
sg8
I12
sg9
S'154.54.80.41'
p54
sba(i__main__
Salto
p55
(dp56
g3
F0.19617102146148682
sg4
I1
sg5
I10
sg6
S'US'
p57
sg8
I13
sg9
S'154.54.24.193'
p58
sba(i__main__
Salto
p59
(dp60
g3
F0.19290945529937745
sg4
I1
sg5
I10
sg6
S'US'
p61
sg8
I14
sg9
S'154.54.7.157'
p62
sba(i__main__
Salto
p63
(dp64
g3
F0.19909970760345458
sg4
I1
sg5
I10
sg6
S'US'
p65
sg8
I15
sg9
S'154.54.40.105'
p66
sba(i__main__
Salto
p67
(dp68
g3
F0.26681199073791506
sg4
I1
sg5
I10
sg6
S'US'
p69
sg8
I16
sg9
S'154.54.30.186'
p70
sba(i__main__
Salto
p71
(dp72
g3
F0.27521624565124514
sg4
I1
sg5
I10
sg6
S'US'
p73
sg8
I17
sg9
S'154.54.56.94'
p74
sba(i__main__
Salto
p75
(dp76
g3
F0.28976640701293943
sg4
I1
sg5
I10
sg6
S'US'
p77
sg8
I18
sg9
S'154.54.38.206'
p78
sba(i__main__
Salto
p79
(dp80
g3
F0.29972333908081056
sg4
I1
sg5
I10
sg6
S'US'
p81
sg8
I19
sg9
S'154.54.63.2'
p82
sba(i__main__
Salto
p83
(dp84
g3
F0.3259202241897583
sg4
I1
sg5
I10
sg6
S'US'
p85
sg8
I20
sg9
S'154.54.62.250'
p86
sba(i__main__
Salto
p87
(dp88
g3
F0.3132723331451416
sg4
I1
sg5
I10
sg6
S'US'
p89
sg8
I21
sg9
S'149.6.58.42'
p90
sba(i__main__
Salto
p91
(dp92
g3
F0.34029583930969237
sg4
I1
sg5
I10
sg6
S'RU'
p93
sg8
I22
sg9
S'194.85.40.133'
p94
sba(i__main__
Salto
p95
(dp96
g3
F0.32093081474304197
sg4
I1
sg5
I10
sg6
S'RU'
p97
sg8
I23
sg9
S'194.190.254.118'
p98
sba(i__main__
Salto
p99
(dp100
g3
F0.3180168628692627
sg4
I1
sg5
I10
sg6
S'RU'
p101
sg8
I24
sg9
S'93.180.0.174'
p102
sba(i__main__
Salto
p103
(dp104
g3
F0.32094939549763996
sg4
I0
sg5
I9
sg6
S'RU'
p105
sg8
I25
sg9
S'188.44.33.30'
p106
sba(i__main__
Salto
p107
(dp108
g3
F0.3322746992111206
sg4
I1
sg5
I10
sg6
S'RU'
p109
sg8
I26
sg9
S'188.44.33.2'
p110
sba(i__main__
Salto
p111
(dp112
g3
F0.42536947727203367
sg4
I1
sg5
I10
sg6
S'RU'
p113
sg8
I27
sg9
S'188.44.50.103'
p114
sba.